target datalayout = "e-m:e-p270:32:32-p271:32:32-p272:64:64-i64:64-i128:128-f80:128-n8:16:32:64-S128"
target triple = "x86_64-pc-linux-gnu"

%struct.onas_context = type <{ ptr, ptr, i32, i32, i32, i32, i64, i8, i8, i8, i64, i64, i32, i32, i32, i32, i64, i32 }>

@.str.17 = private unnamed_addr constant [12 x i8] c"Clamonacc: \00", align 1
@.str.18 = private unnamed_addr constant [18 x i8] c"daemon is remote\0A\00", align 1
@.str.19 = private unnamed_addr constant [17 x i8] c"daemon is local\0A\00", align 1

; Function Attrs: nounwind uwtable
define dso_local i32 @onas_check_client_connection(ptr noundef %0) #0 {
  %2 = alloca ptr, align 8
  %3 = alloca i32, align 4
  store ptr %0, ptr %2, align 8, !tbaa !31
  call void @llvm.lifetime.start.p0(i64 4, ptr %3) #9
  store i32 0, ptr %3, align 4, !tbaa !4
  %4 = load ptr, ptr %2, align 8, !tbaa !31
  %5 = call i32 @onas_check_remote(ptr noundef %4, ptr noundef %3)
  %6 = load ptr, ptr %2, align 8, !tbaa !31
  %7 = load ptr, ptr %6, align 8, !tbaa !11
  %8 = getelementptr inbounds nuw %struct.onas_context, ptr %7, i32 0, i32 13
  store i32 %5, ptr %8, align 1, !tbaa !33
  %9 = load i32, ptr %3, align 4, !tbaa !4
  %10 = icmp eq i32 0, %9
  br i1 %10, label %11, label %23

11:                                               ; preds = %1
  %12 = call i32 (i32, ptr, ...) @logg(i32 noundef 2, ptr noundef @.str.17)
  %13 = load ptr, ptr %2, align 8, !tbaa !31
  %14 = load ptr, ptr %13, align 8, !tbaa !11
  %15 = getelementptr inbounds nuw %struct.onas_context, ptr %14, i32 0, i32 13
  %16 = load i32, ptr %15, align 1, !tbaa !33
  %17 = icmp ne i32 %16, 0
  br i1 %17, label %18, label %20

18:                                               ; preds = %11
  %19 = call i32 (i32, ptr, ...) @logg(i32 noundef 2, ptr noundef @.str.18)
  br label %22

20:                                               ; preds = %11
  %21 = call i32 (i32, ptr, ...) @logg(i32 noundef 2, ptr noundef @.str.19)
  br label %22

22:                                               ; preds = %20, %18
  br label %23

23:                                               ; preds = %22, %1
  %24 = load i32, ptr %3, align 4, !tbaa !4
  %25 = icmp ne i32 %24, 0
  %26 = select i1 %25, i32 16, i32 0
  call void @llvm.lifetime.end.p0(i64 4, ptr %3) #9
  ret i32 %26
}