; Function Attrs: nounwind uwtable
define dso_local range(i32 0, 17) i32 @onas_check_client_connection(ptr noundef %0) local_unnamed_addr #0 {
  %2 = alloca i32, align 4
  call void @llvm.lifetime.start.p0(i64 4, ptr nonnull %2) #12
  store i32 0, ptr %2, align 4, !tbaa !24
  %3 = call i32 @onas_check_remote(ptr noundef %0, ptr noundef nonnull %2) #12
  %4 = load ptr, ptr %0, align 8, !tbaa !4
  %5 = getelementptr inbounds nuw i8, ptr %4, i64 63
  store i32 %3, ptr %5, align 1, !tbaa !29
  %6 = load i32, ptr %2, align 4, !tbaa !24
  %7 = icmp eq i32 %6, 0
  br i1 %7, label %.sink.split, label %13

.sink.split:                                      ; preds = %1
  %8 = call i32 (i32, ptr, ...) @logg(i32 noundef 2, ptr noundef nonnull @.str.17) #12
  %9 = load ptr, ptr %0, align 8, !tbaa !4
  %10 = getelementptr inbounds nuw i8, ptr %9, i64 63
  %11 = load i32, ptr %10, align 1, !tbaa !29
  %.not = icmp eq i32 %11, 0
  %.str.19..str.18 = select i1 %.not, ptr @.str.19, ptr @.str.18
  %12 = call i32 (i32, ptr, ...) @logg(i32 noundef 2, ptr noundef nonnull %.str.19..str.18) #12
  br label %13

13:                                               ; preds = %.sink.split, %1
  %14 = load i32, ptr %2, align 4, !tbaa !24
  %.not3 = icmp eq i32 %14, 0
  %15 = select i1 %.not3, i32 0, i32 16
  call void @llvm.lifetime.end.p0(i64 4, ptr nonnull %2) #12
  ret i32 %15
}